target datalayout = "e-m:e-p270:32:32-p271:32:32-p272:64:64-i64:64-i128:128-f80:128-n8:16:32:64-S128"
target triple = "x86_64-pc-linux-gnu"

%struct.AVChannelLayout = type { i32, i32, %union.anon.1, ptr }
%union.anon.1 = type { i64 }
%struct.AVCodecContext = type { ptr, i32, i32, ptr, i32, i32, ptr, ptr, ptr, i64, i32, i32, ptr, i32, %struct.AVRational, %struct.AVRational, %struct.AVRational, i32, i32, i32, i32, i32, %struct.AVRational, i32, i32, i32, i32, i32, i32, i32, i32, i32, i32, i32, ptr, ptr, i32, float, float, float, float, float, float, float, float, float, i32, i32, i32, i32, i32, i32, i32, i32, i32, i32, i32, i32, ptr, ptr, ptr, i32, i32, i32, i32, i32, i32, i32, i32, i32, i32, %struct.AVChannelLayout, i32, i32, i32, i32, i32, i32, i32, i32, ptr, i32, i32, i32, float, float, i32, i32, i32, i32, i32, ptr, i64, i64, float, float, i32, i32, ptr, ptr, i32, i32, i32, i32, i32, ptr, ptr, ptr, ptr, i32, i32, [8 x i64], i32, i32, i32, i32, i32, i32, i32, ptr, ptr, i32, i32, i32, i32, i32, i32, i32, i32, i32, i32, ptr, ptr, i32, i32, ptr, ptr, ptr, ptr, i32, i32, i64, i32, i32, i64, ptr, i64, ptr, i32, ptr, i32 }
%struct.AVRational = type { i32, i32 }
%struct.MLPDecodeContext = type { ptr, ptr, %struct.AVChannelLayout, i32, i32, i8, i8, i8, i8, i8, i8, i32, i32, [4 x %struct.SubStream], i32, [8 x [2 x i32]], [256 x i8], [160 x [8 x i8]], [12 x i8], [160 x [8 x i32]], %struct.MLPDSPContext, ptr }
%struct.SubStream = type { i8, i8, i16, i8, i8, i64, i8, [8 x i8], i64, i32, i32, [8 x %struct.ChannelParams], i8, i32, i8, i8, i8, [8 x i8], [8 x i8], [5 x i8], [8 x [8 x i32]], [8 x i8], [8 x i8], i16, i16, [8 x i8], i32 }
%struct.ChannelParams = type { [2 x %struct.FilterParams], [2 x [8 x i32]], i16, i32, i8, i8 }
%struct.FilterParams = type { i8, i8, [8 x i32], i32, i32 }
%struct.MLPDSPContext = type { ptr, ptr, ptr }

@mlp_decode_init.init_static_once = internal global i32 0, align 4
@.str.9 = private unnamed_addr constant [24 x i8] c"Invalid downmix layout\0A\00", align 1

; Function Attrs: cold nounwind optsize uwtable
define internal i32 @mlp_decode_init(ptr noundef %0) #0 {
  %2 = alloca ptr, align 8
  %3 = alloca ptr, align 8
  %4 = alloca i32, align 4
  %5 = alloca %struct.AVChannelLayout, align 8
  %6 = alloca %struct.AVChannelLayout, align 8
  %7 = alloca %struct.AVChannelLayout, align 8
  %8 = alloca %struct.AVChannelLayout, align 8
  %9 = alloca %struct.AVChannelLayout, align 8
  %10 = alloca %struct.AVChannelLayout, align 8
  %11 = alloca %struct.AVChannelLayout, align 8
  store ptr %0, ptr %2, align 8, !tbaa !4
  call void @llvm.lifetime.start.p0(i64 8, ptr %3) #10
  %12 = load ptr, ptr %2, align 8, !tbaa !4
  %13 = getelementptr inbounds nuw %struct.AVCodecContext, ptr %12, i32 0, i32 6
  %14 = load ptr, ptr %13, align 8, !tbaa !9
  store ptr %14, ptr %3, align 8, !tbaa !29
  call void @llvm.lifetime.start.p0(i64 4, ptr %4) #10
  %15 = load ptr, ptr %2, align 8, !tbaa !4
  %16 = load ptr, ptr %3, align 8, !tbaa !29
  %17 = getelementptr inbounds nuw %struct.MLPDecodeContext, ptr %16, i32 0, i32 1
  store ptr %15, ptr %17, align 8, !tbaa !31
  store i32 0, ptr %4, align 4, !tbaa !34
  br label %18

18:                                               ; preds = %28, %1
  %19 = load i32, ptr %4, align 4, !tbaa !34
  %20 = icmp slt i32 %19, 4
  br i1 %20, label %21, label %31

21:                                               ; preds = %18
  %22 = load ptr, ptr %3, align 8, !tbaa !29
  %23 = getelementptr inbounds nuw %struct.MLPDecodeContext, ptr %22, i32 0, i32 13
  %24 = load i32, ptr %4, align 4, !tbaa !34
  %25 = sext i32 %24 to i64
  %26 = getelementptr inbounds [4 x %struct.SubStream], ptr %23, i64 0, i64 %25
  %27 = getelementptr inbounds nuw %struct.SubStream, ptr %26, i32 0, i32 26
  store i32 -1, ptr %27, align 4, !tbaa !35
  br label %28

28:                                               ; preds = %21
  %29 = load i32, ptr %4, align 4, !tbaa !34
  %30 = add nsw i32 %29, 1
  store i32 %30, ptr %4, align 4, !tbaa !34
  br label %18, !llvm.loop !38

31:                                               ; preds = %18
  %32 = load ptr, ptr %3, align 8, !tbaa !29
  %33 = getelementptr inbounds nuw %struct.MLPDecodeContext, ptr %32, i32 0, i32 20
  call void @ff_mlpdsp_init(ptr noundef %33)
  %34 = load ptr, ptr %3, align 8, !tbaa !29
  %35 = getelementptr inbounds nuw %struct.MLPDecodeContext, ptr %34, i32 0, i32 2
  %36 = getelementptr inbounds nuw %struct.AVChannelLayout, ptr %35, i32 0, i32 1
  %37 = load i32, ptr %36, align 4, !tbaa !40
  %38 = icmp ne i32 %37, 0
  br i1 %38, label %39, label %107

39:                                               ; preds = %31
  %40 = load ptr, ptr %3, align 8, !tbaa !29
  %41 = getelementptr inbounds nuw %struct.MLPDecodeContext, ptr %40, i32 0, i32 2
  %42 = getelementptr inbounds nuw %struct.AVChannelLayout, ptr %5, i32 0, i32 0
  store i32 1, ptr %42, align 8, !tbaa !41
  %43 = getelementptr inbounds nuw %struct.AVChannelLayout, ptr %5, i32 0, i32 1
  store i32 2, ptr %43, align 4, !tbaa !42
  %44 = getelementptr inbounds nuw %struct.AVChannelLayout, ptr %5, i32 0, i32 2
  store i64 3, ptr %44, align 8, !tbaa !43
  %45 = getelementptr inbounds nuw %struct.AVChannelLayout, ptr %5, i32 0, i32 3
  store ptr null, ptr %45, align 8, !tbaa !44
  %46 = call i32 @av_channel_layout_compare(ptr noundef %41, ptr noundef %5)
  %47 = icmp ne i32 %46, 0
  br i1 %47, label %48, label %57

48:                                               ; preds = %39
  %49 = load ptr, ptr %3, align 8, !tbaa !29
  %50 = getelementptr inbounds nuw %struct.MLPDecodeContext, ptr %49, i32 0, i32 2
  %51 = getelementptr inbounds nuw %struct.AVChannelLayout, ptr %6, i32 0, i32 0
  store i32 1, ptr %51, align 8, !tbaa !41
  %52 = getelementptr inbounds nuw %struct.AVChannelLayout, ptr %6, i32 0, i32 1
  store i32 2, ptr %52, align 4, !tbaa !42
  %53 = getelementptr inbounds nuw %struct.AVChannelLayout, ptr %6, i32 0, i32 2
  store i64 1610612736, ptr %53, align 8, !tbaa !43
  %54 = getelementptr inbounds nuw %struct.AVChannelLayout, ptr %6, i32 0, i32 3
  store ptr null, ptr %54, align 8, !tbaa !44
  %55 = call i32 @av_channel_layout_compare(ptr noundef %50, ptr noundef %6)
  %56 = icmp ne i32 %55, 0
  br i1 %56, label %66, label %57

57:                                               ; preds = %48, %39
  %58 = load ptr, ptr %2, align 8, !tbaa !4
  %59 = getelementptr inbounds nuw %struct.AVCodecContext, ptr %58, i32 0, i32 71
  call void @av_channel_layout_uninit(ptr noundef %59)
  %60 = load ptr, ptr %2, align 8, !tbaa !4
  %61 = getelementptr inbounds nuw %struct.AVCodecContext, ptr %60, i32 0, i32 71
  %62 = getelementptr inbounds nuw %struct.AVChannelLayout, ptr %7, i32 0, i32 0
  store i32 1, ptr %62, align 8, !tbaa !41
  %63 = getelementptr inbounds nuw %struct.AVChannelLayout, ptr %7, i32 0, i32 1
  store i32 2, ptr %63, align 4, !tbaa !42
  %64 = getelementptr inbounds nuw %struct.AVChannelLayout, ptr %7, i32 0, i32 2
  store i64 3, ptr %64, align 8, !tbaa !43
  %65 = getelementptr inbounds nuw %struct.AVChannelLayout, ptr %7, i32 0, i32 3
  store ptr null, ptr %65, align 8, !tbaa !44
  call void @llvm.memcpy.p0.p0.i64(ptr align 8 %61, ptr align 8 %7, i64 24, i1 false), !tbaa.struct !45
  br label %106

66:                                               ; preds = %48
  %67 = load ptr, ptr %3, align 8, !tbaa !29
  %68 = getelementptr inbounds nuw %struct.MLPDecodeContext, ptr %67, i32 0, i32 2
  %69 = getelementptr inbounds nuw %struct.AVChannelLayout, ptr %8, i32 0, i32 0
  store i32 1, ptr %69, align 8, !tbaa !41
  %70 = getelementptr inbounds nuw %struct.AVChannelLayout, ptr %8, i32 0, i32 1
  store i32 5, ptr %70, align 4, !tbaa !42
  %71 = getelementptr inbounds nuw %struct.AVChannelLayout, ptr %8, i32 0, i32 2
  store i64 1543, ptr %71, align 8, !tbaa !43
  %72 = getelementptr inbounds nuw %struct.AVChannelLayout, ptr %8, i32 0, i32 3
  store ptr null, ptr %72, align 8, !tbaa !44
  %73 = call i32 @av_channel_layout_compare(ptr noundef %68, ptr noundef %8)
  %74 = icmp ne i32 %73, 0
  br i1 %74, label %84, label %75

75:                                               ; preds = %66
  %76 = load ptr, ptr %2, align 8, !tbaa !4
  %77 = getelementptr inbounds nuw %struct.AVCodecContext, ptr %76, i32 0, i32 71
  call void @av_channel_layout_uninit(ptr noundef %77)
  %78 = load ptr, ptr %2, align 8, !tbaa !4
  %79 = getelementptr inbounds nuw %struct.AVCodecContext, ptr %78, i32 0, i32 71
  %80 = getelementptr inbounds nuw %struct.AVChannelLayout, ptr %9, i32 0, i32 0
  store i32 1, ptr %80, align 8, !tbaa !41
  %81 = getelementptr inbounds nuw %struct.AVChannelLayout, ptr %9, i32 0, i32 1
  store i32 5, ptr %81, align 4, !tbaa !42
  %82 = getelementptr inbounds nuw %struct.AVChannelLayout, ptr %9, i32 0, i32 2
  store i64 1543, ptr %82, align 8, !tbaa !43
  %83 = getelementptr inbounds nuw %struct.AVChannelLayout, ptr %9, i32 0, i32 3
  store ptr null, ptr %83, align 8, !tbaa !44
  call void @llvm.memcpy.p0.p0.i64(ptr align 8 %79, ptr align 8 %9, i64 24, i1 false), !tbaa.struct !45
  br label %105

84:                                               ; preds = %66
  %85 = load ptr, ptr %3, align 8, !tbaa !29
  %86 = getelementptr inbounds nuw %struct.MLPDecodeContext, ptr %85, i32 0, i32 2
  %87 = getelementptr inbounds nuw %struct.AVChannelLayout, ptr %10, i32 0, i32 0
  store i32 1, ptr %87, align 8, !tbaa !41
  %88 = getelementptr inbounds nuw %struct.AVChannelLayout, ptr %10, i32 0, i32 1
  store i32 6, ptr %88, align 4, !tbaa !42
  %89 = getelementptr inbounds nuw %struct.AVChannelLayout, ptr %10, i32 0, i32 2
  store i64 1551, ptr %89, align 8, !tbaa !43
  %90 = getelementptr inbounds nuw %struct.AVChannelLayout, ptr %10, i32 0, i32 3
  store ptr null, ptr %90, align 8, !tbaa !44
  %91 = call i32 @av_channel_layout_compare(ptr noundef %86, ptr noundef %10)
  %92 = icmp ne i32 %91, 0
  br i1 %92, label %102, label %93

93:                                               ; preds = %84
  %94 = load ptr, ptr %2, align 8, !tbaa !4
  %95 = getelementptr inbounds nuw %struct.AVCodecContext, ptr %94, i32 0, i32 71
  call void @av_channel_layout_uninit(ptr noundef %95)
  %96 = load ptr, ptr %2, align 8, !tbaa !4
  %97 = getelementptr inbounds nuw %struct.AVCodecContext, ptr %96, i32 0, i32 71
  %98 = getelementptr inbounds nuw %struct.AVChannelLayout, ptr %11, i32 0, i32 0
  store i32 1, ptr %98, align 8, !tbaa !41
  %99 = getelementptr inbounds nuw %struct.AVChannelLayout, ptr %11, i32 0, i32 1
  store i32 6, ptr %99, align 4, !tbaa !42
  %100 = getelementptr inbounds nuw %struct.AVChannelLayout, ptr %11, i32 0, i32 2
  store i64 1551, ptr %100, align 8, !tbaa !43
  %101 = getelementptr inbounds nuw %struct.AVChannelLayout, ptr %11, i32 0, i32 3
  store ptr null, ptr %101, align 8, !tbaa !44
  call void @llvm.memcpy.p0.p0.i64(ptr align 8 %97, ptr align 8 %11, i64 24, i1 false), !tbaa.struct !45
  br label %104

102:                                              ; preds = %84
  %103 = load ptr, ptr %2, align 8, !tbaa !4
  call void (ptr, i32, ptr, ...) @av_log(ptr noundef %103, i32 noundef 24, ptr noundef @.str.9)
  br label %104

104:                                              ; preds = %102, %93
  br label %105

105:                                              ; preds = %104, %75
  br label %106

106:                                              ; preds = %105, %57
  br label %107

107:                                              ; preds = %106, %31
  %108 = call i32 @pthread_once(ptr noundef @mlp_decode_init.init_static_once, ptr noundef @init_static)
  call void @llvm.lifetime.end.p0(i64 4, ptr %4) #10
  call void @llvm.lifetime.end.p0(i64 8, ptr %3) #10
  ret i32 0
}