; Function Attrs: cold nounwind optsize uwtable
define internal noundef i32 @mlp_decode_init(ptr noundef %0) #0 {
  %2 = alloca %struct.AVChannelLayout, align 8
  %3 = alloca %struct.AVChannelLayout, align 8
  %4 = alloca %struct.AVChannelLayout, align 8
  %5 = alloca %struct.AVChannelLayout, align 8
  %6 = getelementptr inbounds nuw i8, ptr %0, i64 32
  %7 = load ptr, ptr %6, align 8, !tbaa !4
  %8 = getelementptr inbounds nuw i8, ptr %7, i64 8
  store ptr %0, ptr %8, align 8, !tbaa !27
  %invariant.gep = getelementptr inbounds nuw i8, ptr %7, i64 1740
  br label %9

9:                                                ; preds = %1, %9
  %indvars.iv = phi i64 [ 0, %1 ], [ %indvars.iv.next, %9 ]
  %10 = mul nuw nsw i64 %indvars.iv, 1680
  %gep = getelementptr inbounds nuw i8, ptr %invariant.gep, i64 %10
  store i32 -1, ptr %gep, align 4, !tbaa !31
  %indvars.iv.next = add nuw nsw i64 %indvars.iv, 1
  %exitcond.not = icmp eq i64 %indvars.iv.next, 4
  br i1 %exitcond.not, label %11, label %9, !llvm.loop !34

11:                                               ; preds = %9
  %12 = getelementptr inbounds nuw i8, ptr %7, i64 13520
  tail call void @ff_mlpdsp_init(ptr noundef nonnull %12) #8
  %13 = getelementptr inbounds nuw i8, ptr %7, i64 16
  %14 = getelementptr inbounds nuw i8, ptr %7, i64 20
  %15 = load i32, ptr %14, align 4, !tbaa !36
  %.not = icmp eq i32 %15, 0
  br i1 %.not, label %43, label %16

16:                                               ; preds = %11
  store i32 1, ptr %2, align 8, !tbaa !37
  %17 = getelementptr inbounds nuw i8, ptr %2, i64 4
  store i32 2, ptr %17, align 4, !tbaa !38
  %18 = getelementptr inbounds nuw i8, ptr %2, i64 8
  store i64 3, ptr %18, align 8, !tbaa !39
  %19 = getelementptr inbounds nuw i8, ptr %2, i64 16
  store ptr null, ptr %19, align 8, !tbaa !40
  %20 = call i32 @av_channel_layout_compare(ptr noundef nonnull %13, ptr noundef nonnull %2) #8
  %.not27 = icmp eq i32 %20, 0
  br i1 %.not27, label %26, label %21

21:                                               ; preds = %16
  store i32 1, ptr %3, align 8, !tbaa !37
  %22 = getelementptr inbounds nuw i8, ptr %3, i64 4
  store i32 2, ptr %22, align 4, !tbaa !38
  %23 = getelementptr inbounds nuw i8, ptr %3, i64 8
  store i64 1610612736, ptr %23, align 8, !tbaa !39
  %24 = getelementptr inbounds nuw i8, ptr %3, i64 16
  store ptr null, ptr %24, align 8, !tbaa !40
  %25 = call i32 @av_channel_layout_compare(ptr noundef nonnull %13, ptr noundef nonnull %3) #8
  %.not28 = icmp eq i32 %25, 0
  br i1 %.not28, label %26, label %28

26:                                               ; preds = %21, %16
  %27 = getelementptr inbounds nuw i8, ptr %0, i64 352
  call void @av_channel_layout_uninit(ptr noundef nonnull %27) #8
  store i32 1, ptr %27, align 8, !tbaa !41
  %.sroa.26.0..sroa_idx = getelementptr inbounds nuw i8, ptr %0, i64 356
  store i32 2, ptr %.sroa.26.0..sroa_idx, align 4, !tbaa !41
  %.sroa.37.0..sroa_idx = getelementptr inbounds nuw i8, ptr %0, i64 360
  store i64 3, ptr %.sroa.37.0..sroa_idx, align 8, !tbaa !39
  %.sroa.48.0..sroa_idx = getelementptr inbounds nuw i8, ptr %0, i64 368
  store ptr null, ptr %.sroa.48.0..sroa_idx, align 8, !tbaa !42
  br label %43

28:                                               ; preds = %21
  store i32 1, ptr %4, align 8, !tbaa !37
  %29 = getelementptr inbounds nuw i8, ptr %4, i64 4
  store i32 5, ptr %29, align 4, !tbaa !38
  %30 = getelementptr inbounds nuw i8, ptr %4, i64 8
  store i64 1543, ptr %30, align 8, !tbaa !39
  %31 = getelementptr inbounds nuw i8, ptr %4, i64 16
  store ptr null, ptr %31, align 8, !tbaa !40
  %32 = call i32 @av_channel_layout_compare(ptr noundef nonnull %13, ptr noundef nonnull %4) #8
  %.not29 = icmp eq i32 %32, 0
  br i1 %.not29, label %33, label %35

33:                                               ; preds = %28
  %34 = getelementptr inbounds nuw i8, ptr %0, i64 352
  call void @av_channel_layout_uninit(ptr noundef nonnull %34) #8
  store i32 1, ptr %34, align 8, !tbaa !41
  %.sroa.22.0..sroa_idx = getelementptr inbounds nuw i8, ptr %0, i64 356
  store i32 5, ptr %.sroa.22.0..sroa_idx, align 4, !tbaa !41
  %.sroa.33.0..sroa_idx = getelementptr inbounds nuw i8, ptr %0, i64 360
  store i64 1543, ptr %.sroa.33.0..sroa_idx, align 8, !tbaa !39
  %.sroa.44.0..sroa_idx = getelementptr inbounds nuw i8, ptr %0, i64 368
  store ptr null, ptr %.sroa.44.0..sroa_idx, align 8, !tbaa !42
  br label %43

35:                                               ; preds = %28
  store i32 1, ptr %5, align 8, !tbaa !37
  %36 = getelementptr inbounds nuw i8, ptr %5, i64 4
  store i32 6, ptr %36, align 4, !tbaa !38
  %37 = getelementptr inbounds nuw i8, ptr %5, i64 8
  store i64 1551, ptr %37, align 8, !tbaa !39
  %38 = getelementptr inbounds nuw i8, ptr %5, i64 16
  store ptr null, ptr %38, align 8, !tbaa !40
  %39 = call i32 @av_channel_layout_compare(ptr noundef nonnull %13, ptr noundef nonnull %5) #8
  %.not30 = icmp eq i32 %39, 0
  br i1 %.not30, label %40, label %42

40:                                               ; preds = %35
  %41 = getelementptr inbounds nuw i8, ptr %0, i64 352
  call void @av_channel_layout_uninit(ptr noundef nonnull %41) #8
  store i32 1, ptr %41, align 8, !tbaa !41
  %.sroa.2.0..sroa_idx = getelementptr inbounds nuw i8, ptr %0, i64 356
  store i32 6, ptr %.sroa.2.0..sroa_idx, align 4, !tbaa !41
  %.sroa.3.0..sroa_idx = getelementptr inbounds nuw i8, ptr %0, i64 360
  store i64 1551, ptr %.sroa.3.0..sroa_idx, align 8, !tbaa !39
  %.sroa.4.0..sroa_idx = getelementptr inbounds nuw i8, ptr %0, i64 368
  store ptr null, ptr %.sroa.4.0..sroa_idx, align 8, !tbaa !42
  br label %43

42:                                               ; preds = %35
  call void (ptr, i32, ptr, ...) @av_log(ptr noundef nonnull %0, i32 noundef 24, ptr noundef nonnull @.str.9) #8
  br label %43

43:                                               ; preds = %26, %40, %42, %33, %11
  %44 = call i32 @pthread_once(ptr noundef nonnull @mlp_decode_init.init_static_once, ptr noundef nonnull @init_static) #8
  ret i32 0
}